; Function Attrs: nounwind uwtable
define internal fastcc void @_jumbleRangeVar(ptr noundef %0, ptr noundef nonnull readonly captures(none) %1) unnamed_addr #0 {
  %3 = getelementptr inbounds nuw i8, ptr %1, i64 8
  %4 = load ptr, ptr %3, align 8
  %.not = icmp eq ptr %4, null
  %.pre65.pre67.pre70 = load ptr, ptr %0, align 8
  br i1 %.not, label %20, label %5

5:                                                ; preds = %2
  %6 = tail call i64 @strlen(ptr noundef nonnull dereferenceable(1) %4) #8
  %7 = add i64 %6, 1
  %8 = getelementptr inbounds nuw i8, ptr %0, i64 8
  %9 = load i64, ptr %8, align 8
  %.not23.i = icmp eq i64 %7, 0
  br i1 %.not23.i, label %AppendJumble.exit, label %.lr.ph.i

.lr.ph.i:                                         ; preds = %5, %13
  %.026.i = phi ptr [ %18, %13 ], [ %4, %5 ]
  %.02125.i = phi i64 [ %19, %13 ], [ %7, %5 ]
  %.02224.i = phi i64 [ %17, %13 ], [ %9, %5 ]
  %10 = icmp ugt i64 %.02224.i, 1023
  br i1 %10, label %11, label %13

11:                                               ; preds = %.lr.ph.i
  %12 = tail call i64 @hash_bytes_extended(ptr noundef %.pre65.pre67.pre70, i32 noundef 1024, i64 noundef 0) #9
  store i64 %12, ptr %.pre65.pre67.pre70, align 1
  br label %13

13:                                               ; preds = %11, %.lr.ph.i
  %.1.i = phi i64 [ 8, %11 ], [ %.02224.i, %.lr.ph.i ]
  %14 = sub nuw nsw i64 1024, %.1.i
  %15 = tail call i64 @llvm.umin.i64(i64 %.02125.i, i64 %14)
  %16 = getelementptr inbounds nuw i8, ptr %.pre65.pre67.pre70, i64 %.1.i
  tail call void @llvm.memcpy.p0.p0.i64(ptr noundef nonnull align 1 dereferenceable(1) %16, ptr noundef nonnull align 1 dereferenceable(1) %.026.i, i64 %15, i1 false)
  %17 = add nuw nsw i64 %15, %.1.i
  %18 = getelementptr inbounds nuw i8, ptr %.026.i, i64 %15
  %19 = sub i64 %.02125.i, %15
  %.not.i = icmp eq i64 %19, 0
  br i1 %.not.i, label %AppendJumble.exit.loopexit, label %.lr.ph.i, !llvm.loop !7

AppendJumble.exit.loopexit:                       ; preds = %13
  %.pre65.pre67.pre.pre = load ptr, ptr %0, align 8
  br label %AppendJumble.exit

AppendJumble.exit:                                ; preds = %AppendJumble.exit.loopexit, %5
  %.pre65.pre67.pre = phi ptr [ %.pre65.pre67.pre70, %5 ], [ %.pre65.pre67.pre.pre, %AppendJumble.exit.loopexit ]
  %.022.lcssa.i = phi i64 [ %9, %5 ], [ %17, %AppendJumble.exit.loopexit ]
  store i64 %.022.lcssa.i, ptr %8, align 8
  br label %20

20:                                               ; preds = %2, %AppendJumble.exit
  %.pre65.pre67 = phi ptr [ %.pre65.pre67.pre70, %2 ], [ %.pre65.pre67.pre, %AppendJumble.exit ]
  %21 = getelementptr inbounds nuw i8, ptr %1, i64 16
  %22 = load ptr, ptr %21, align 8
  %.not21 = icmp eq ptr %22, null
  br i1 %.not21, label %38, label %23

23:                                               ; preds = %20
  %24 = tail call i64 @strlen(ptr noundef nonnull dereferenceable(1) %22) #8
  %25 = add i64 %24, 1
  %26 = getelementptr inbounds nuw i8, ptr %0, i64 8
  %27 = load i64, ptr %26, align 8
  %.not23.i23 = icmp eq i64 %25, 0
  br i1 %.not23.i23, label %AppendJumble.exit31, label %.lr.ph.i24

.lr.ph.i24:                                       ; preds = %23, %31
  %.026.i25 = phi ptr [ %36, %31 ], [ %22, %23 ]
  %.02125.i26 = phi i64 [ %37, %31 ], [ %25, %23 ]
  %.02224.i27 = phi i64 [ %35, %31 ], [ %27, %23 ]
  %28 = icmp ugt i64 %.02224.i27, 1023
  br i1 %28, label %29, label %31

29:                                               ; preds = %.lr.ph.i24
  %30 = tail call i64 @hash_bytes_extended(ptr noundef %.pre65.pre67, i32 noundef 1024, i64 noundef 0) #9
  store i64 %30, ptr %.pre65.pre67, align 1
  br label %31

31:                                               ; preds = %29, %.lr.ph.i24
  %.1.i28 = phi i64 [ 8, %29 ], [ %.02224.i27, %.lr.ph.i24 ]
  %32 = sub nuw nsw i64 1024, %.1.i28
  %33 = tail call i64 @llvm.umin.i64(i64 %.02125.i26, i64 %32)
  %34 = getelementptr inbounds nuw i8, ptr %.pre65.pre67, i64 %.1.i28
  tail call void @llvm.memcpy.p0.p0.i64(ptr noundef nonnull align 1 dereferenceable(1) %34, ptr noundef nonnull align 1 dereferenceable(1) %.026.i25, i64 %33, i1 false)
  %35 = add nuw nsw i64 %33, %.1.i28
  %36 = getelementptr inbounds nuw i8, ptr %.026.i25, i64 %33
  %37 = sub i64 %.02125.i26, %33
  %.not.i29 = icmp eq i64 %37, 0
  br i1 %.not.i29, label %AppendJumble.exit31.loopexit, label %.lr.ph.i24, !llvm.loop !7

AppendJumble.exit31.loopexit:                     ; preds = %31
  %.pre65.pre.pre = load ptr, ptr %0, align 8
  br label %AppendJumble.exit31

AppendJumble.exit31:                              ; preds = %AppendJumble.exit31.loopexit, %23
  %.pre65.pre = phi ptr [ %.pre65.pre67, %23 ], [ %.pre65.pre.pre, %AppendJumble.exit31.loopexit ]
  %.022.lcssa.i30 = phi i64 [ %27, %23 ], [ %35, %AppendJumble.exit31.loopexit ]
  store i64 %.022.lcssa.i30, ptr %26, align 8
  br label %38

38:                                               ; preds = %20, %AppendJumble.exit31
  %.pre65 = phi ptr [ %.pre65.pre67, %20 ], [ %.pre65.pre, %AppendJumble.exit31 ]
  %39 = getelementptr inbounds nuw i8, ptr %1, i64 24
  %40 = load ptr, ptr %39, align 8
  %.not22 = icmp eq ptr %40, null
  br i1 %.not22, label %._crit_edge, label %41

._crit_edge:                                      ; preds = %38
  %.phi.trans.insert = getelementptr inbounds nuw i8, ptr %0, i64 8
  %.pre66 = load i64, ptr %.phi.trans.insert, align 8
  br label %56

41:                                               ; preds = %38
  %42 = tail call i64 @strlen(ptr noundef nonnull dereferenceable(1) %40) #8
  %43 = add i64 %42, 1
  %44 = getelementptr inbounds nuw i8, ptr %0, i64 8
  %45 = load i64, ptr %44, align 8
  %.not23.i32 = icmp eq i64 %43, 0
  br i1 %.not23.i32, label %AppendJumble.exit40, label %.lr.ph.i33

.lr.ph.i33:                                       ; preds = %41, %49
  %.026.i34 = phi ptr [ %54, %49 ], [ %40, %41 ]
  %.02125.i35 = phi i64 [ %55, %49 ], [ %43, %41 ]
  %.02224.i36 = phi i64 [ %53, %49 ], [ %45, %41 ]
  %46 = icmp ugt i64 %.02224.i36, 1023
  br i1 %46, label %47, label %49

47:                                               ; preds = %.lr.ph.i33
  %48 = tail call i64 @hash_bytes_extended(ptr noundef %.pre65, i32 noundef 1024, i64 noundef 0) #9
  store i64 %48, ptr %.pre65, align 1
  br label %49

49:                                               ; preds = %47, %.lr.ph.i33
  %.1.i37 = phi i64 [ 8, %47 ], [ %.02224.i36, %.lr.ph.i33 ]
  %50 = sub nuw nsw i64 1024, %.1.i37
  %51 = tail call i64 @llvm.umin.i64(i64 %.02125.i35, i64 %50)
  %52 = getelementptr inbounds nuw i8, ptr %.pre65, i64 %.1.i37
  tail call void @llvm.memcpy.p0.p0.i64(ptr noundef nonnull align 1 dereferenceable(1) %52, ptr noundef nonnull align 1 dereferenceable(1) %.026.i34, i64 %51, i1 false)
  %53 = add nuw nsw i64 %51, %.1.i37
  %54 = getelementptr inbounds nuw i8, ptr %.026.i34, i64 %51
  %55 = sub i64 %.02125.i35, %51
  %.not.i38 = icmp eq i64 %55, 0
  br i1 %.not.i38, label %AppendJumble.exit40.loopexit, label %.lr.ph.i33, !llvm.loop !7

AppendJumble.exit40.loopexit:                     ; preds = %49
  %.pre.pre = load ptr, ptr %0, align 8
  br label %AppendJumble.exit40

AppendJumble.exit40:                              ; preds = %AppendJumble.exit40.loopexit, %41
  %.pre = phi ptr [ %.pre65, %41 ], [ %.pre.pre, %AppendJumble.exit40.loopexit ]
  %.022.lcssa.i39 = phi i64 [ %45, %41 ], [ %53, %AppendJumble.exit40.loopexit ]
  store i64 %.022.lcssa.i39, ptr %44, align 8
  br label %56

56:                                               ; preds = %._crit_edge, %AppendJumble.exit40
  %57 = phi i64 [ %.022.lcssa.i39, %AppendJumble.exit40 ], [ %.pre66, %._crit_edge ]
  %58 = phi ptr [ %.pre, %AppendJumble.exit40 ], [ %.pre65, %._crit_edge ]
  %59 = getelementptr inbounds nuw i8, ptr %1, i64 32
  %60 = getelementptr inbounds nuw i8, ptr %0, i64 8
  br label %.lr.ph.i41

.lr.ph.i41:                                       ; preds = %64, %56
  %.026.i42 = phi ptr [ %69, %64 ], [ %59, %56 ]
  %.02125.i43 = phi i64 [ %70, %64 ], [ 1, %56 ]
  %.02224.i44 = phi i64 [ %68, %64 ], [ %57, %56 ]
  %61 = icmp ugt i64 %.02224.i44, 1023
  br i1 %61, label %62, label %64

62:                                               ; preds = %.lr.ph.i41
  %63 = tail call i64 @hash_bytes_extended(ptr noundef %58, i32 noundef 1024, i64 noundef 0) #9
  store i64 %63, ptr %58, align 1
  br label %64

64:                                               ; preds = %62, %.lr.ph.i41
  %.1.i45 = phi i64 [ 8, %62 ], [ %.02224.i44, %.lr.ph.i41 ]
  %65 = sub nuw nsw i64 1024, %.1.i45
  %66 = tail call i64 @llvm.umin.i64(i64 %.02125.i43, i64 %65)
  %67 = getelementptr inbounds nuw i8, ptr %58, i64 %.1.i45
  tail call void @llvm.memcpy.p0.p0.i64(ptr noundef nonnull align 1 dereferenceable(1) %67, ptr noundef nonnull align 1 dereferenceable(1) %.026.i42, i64 %66, i1 false)
  %68 = add nuw nsw i64 %66, %.1.i45
  %69 = getelementptr inbounds nuw i8, ptr %.026.i42, i64 %66
  %70 = sub i64 %.02125.i43, %66
  %.not.i46 = icmp eq i64 %70, 0
  br i1 %.not.i46, label %AppendJumble.exit48, label %.lr.ph.i41, !llvm.loop !7

AppendJumble.exit48:                              ; preds = %64
  store i64 %68, ptr %60, align 8
  %71 = getelementptr inbounds nuw i8, ptr %1, i64 33
  %72 = load ptr, ptr %0, align 8
  br label %.lr.ph.i49

.lr.ph.i49:                                       ; preds = %76, %AppendJumble.exit48
  %.026.i50 = phi ptr [ %81, %76 ], [ %71, %AppendJumble.exit48 ]
  %.02125.i51 = phi i64 [ %82, %76 ], [ 1, %AppendJumble.exit48 ]
  %.02224.i52 = phi i64 [ %80, %76 ], [ %68, %AppendJumble.exit48 ]
  %73 = icmp ugt i64 %.02224.i52, 1023
  br i1 %73, label %74, label %76

74:                                               ; preds = %.lr.ph.i49
  %75 = tail call i64 @hash_bytes_extended(ptr noundef %72, i32 noundef 1024, i64 noundef 0) #9
  store i64 %75, ptr %72, align 1
  br label %76

76:                                               ; preds = %74, %.lr.ph.i49
  %.1.i53 = phi i64 [ 8, %74 ], [ %.02224.i52, %.lr.ph.i49 ]
  %77 = sub nuw nsw i64 1024, %.1.i53
  %78 = tail call i64 @llvm.umin.i64(i64 %.02125.i51, i64 %77)
  %79 = getelementptr inbounds nuw i8, ptr %72, i64 %.1.i53
  tail call void @llvm.memcpy.p0.p0.i64(ptr noundef nonnull align 1 dereferenceable(1) %79, ptr noundef nonnull align 1 dereferenceable(1) %.026.i50, i64 %78, i1 false)
  %80 = add nuw nsw i64 %78, %.1.i53
  %81 = getelementptr inbounds nuw i8, ptr %.026.i50, i64 %78
  %82 = sub i64 %.02125.i51, %78
  %.not.i54 = icmp eq i64 %82, 0
  br i1 %.not.i54, label %AppendJumble.exit56, label %.lr.ph.i49, !llvm.loop !7

AppendJumble.exit56:                              ; preds = %76
  store i64 %80, ptr %60, align 8
  %83 = getelementptr inbounds nuw i8, ptr %1, i64 40
  %84 = load ptr, ptr %83, align 8
  tail call fastcc void @_jumbleNode(ptr noundef nonnull %0, ptr noundef %84)
  ret void
}